target datalayout = "e-m:e-p270:32:32-p271:32:32-p272:64:64-i64:64-i128:128-f80:128-n8:16:32:64-S128"
target triple = "x86_64-pc-linux-gnu"

@proto_register_bpdu.ett = internal global [11 x ptr] [ptr @ett_bpdu, ptr @ett_bpdu_flags, ptr @ett_root_id, ptr @ett_bridge_id, ptr @ett_mstp, ptr @ett_msti, ptr @ett_cist_bridge_id, ptr @ett_spt, ptr @ett_aux_mcid, ptr @ett_agreement, ptr @ett_bpdu_pvst_tlv], align 16
@.str.139 = private unnamed_addr constant [23 x i8] c"Spanning Tree Protocol\00", align 1
@.str.140 = private unnamed_addr constant [4 x i8] c"STP\00", align 1
@.str.141 = private unnamed_addr constant [4 x i8] c"stp\00", align 1
@proto_bpdu = internal global i32 0, align 4
@.str.142 = private unnamed_addr constant [5 x i8] c"bpdu\00", align 1
@bpdu_handle = internal global ptr null, align 8
@.str.143 = private unnamed_addr constant [11 x i8] c"bpdu_cisco\00", align 1
@bpdu_cisco_handle = internal global ptr null, align 8
@.str.144 = private unnamed_addr constant [24 x i8] c"use_system_id_extension\00", align 1
@.str.145 = private unnamed_addr constant [32 x i8] c"Use 802.1t System ID Extensions\00", align 1
@.str.146 = private unnamed_addr constant [104 x i8] c"Whether the BPDU dissector should use 802.1t System ID Extensions when dissecting the Bridge Identifier\00", align 1
@bpdu_use_system_id_extensions = internal global i8 1, align 1

; Function Attrs: null_pointer_is_valid sspstrong uwtable
define hidden void @proto_register_bpdu() #0 {
  %1 = alloca ptr, align 8
  %2 = alloca ptr, align 8
  call void @llvm.lifetime.start.p0(i64 8, ptr %1) #3
  call void @llvm.lifetime.start.p0(i64 8, ptr %2) #3
  %3 = call i32 @proto_register_protocol(ptr noundef @.str.139, ptr noundef @.str.140, ptr noundef @.str.141)
  store i32 %3, ptr @proto_bpdu, align 4
  %4 = load i32, ptr @proto_bpdu, align 4
  call void @proto_register_field_array(i32 noundef %4, ptr noundef @proto_register_bpdu.hf, i32 noundef 67)
  call void @proto_register_subtree_array(ptr noundef @proto_register_bpdu.ett, i32 noundef 11)
  %5 = load i32, ptr @proto_bpdu, align 4
  %6 = call ptr @register_dissector(ptr noundef @.str.142, ptr noundef @dissect_bpdu_generic, i32 noundef %5)
  store ptr %6, ptr @bpdu_handle, align 8
  %7 = load i32, ptr @proto_bpdu, align 4
  %8 = call ptr @register_dissector(ptr noundef @.str.143, ptr noundef @dissect_bpdu_cisco, i32 noundef %7)
  store ptr %8, ptr @bpdu_cisco_handle, align 8
  %9 = load i32, ptr @proto_bpdu, align 4
  %10 = call ptr @expert_register_protocol(i32 noundef %9)
  store ptr %10, ptr %2, align 8
  %11 = load ptr, ptr %2, align 8
  call void @expert_register_field_array(ptr noundef %11, ptr noundef @proto_register_bpdu.ei, i32 noundef 6)
  %12 = load i32, ptr @proto_bpdu, align 4
  %13 = call ptr @prefs_register_protocol(i32 noundef %12, ptr noundef null)
  store ptr %13, ptr %1, align 8
  %14 = load ptr, ptr %1, align 8
  call void @prefs_register_bool_preference(ptr noundef %14, ptr noundef @.str.144, ptr noundef @.str.145, ptr noundef @.str.146, ptr noundef @bpdu_use_system_id_extensions)
  call void @llvm.lifetime.end.p0(i64 8, ptr %2) #3
  call void @llvm.lifetime.end.p0(i64 8, ptr %1) #3
  ret void
}