; Function Attrs: null_pointer_is_valid sspstrong uwtable
define hidden void @proto_register_bpdu() local_unnamed_addr #0 {
  %1 = tail call i32 @proto_register_protocol(ptr noundef nonnull @.str.139, ptr noundef nonnull @.str.140, ptr noundef nonnull @.str.141)
  store i32 %1, ptr @proto_bpdu, align 4
  tail call void @proto_register_field_array(i32 noundef %1, ptr noundef nonnull @proto_register_bpdu.hf, i32 noundef 67)
  tail call void @proto_register_subtree_array(ptr noundef nonnull @proto_register_bpdu.ett, i32 noundef 11)
  %2 = load i32, ptr @proto_bpdu, align 4
  %3 = tail call ptr @register_dissector(ptr noundef nonnull @.str.142, ptr noundef nonnull @dissect_bpdu_generic, i32 noundef %2)
  store ptr %3, ptr @bpdu_handle, align 8
  %4 = load i32, ptr @proto_bpdu, align 4
  %5 = tail call ptr @register_dissector(ptr noundef nonnull @.str.143, ptr noundef nonnull @dissect_bpdu_cisco, i32 noundef %4)
  store ptr %5, ptr @bpdu_cisco_handle, align 8
  %6 = load i32, ptr @proto_bpdu, align 4
  %7 = tail call ptr @expert_register_protocol(i32 noundef %6)
  tail call void @expert_register_field_array(ptr noundef %7, ptr noundef nonnull @proto_register_bpdu.ei, i32 noundef 6)
  %8 = load i32, ptr @proto_bpdu, align 4
  %9 = tail call ptr @prefs_register_protocol(i32 noundef %8, ptr noundef null)
  tail call void @prefs_register_bool_preference(ptr noundef %9, ptr noundef nonnull @.str.144, ptr noundef nonnull @.str.145, ptr noundef nonnull @.str.146, ptr noundef nonnull @bpdu_use_system_id_extensions)
  ret void
}